Certificate:
    Data:
        Version: 3 (0x2)
        Serial Number: 4100 (0x1004)
    Signature Algorithm: sha1WithRSAEncryption
        Issuer: C=US, ST=CA, L=Sunnyvale, O=Sensity Systems
        Validity
            Not Before: Aug 28 20:43:59 2013 GMT
            Not After : Oct 17 20:43:59 2095 GMT
        Subject: C=US, ST=CA, O=Sensity Systems, CN=adara
        Subject Public Key Info:
            Public Key Algorithm: rsaEncryption
                Public-Key: (2048 bit)
                Modulus:
                    00:e4:bb:75:35:f6:0b:fd:0f:2e:d1:c0:7f:dd:4a:
                    fa:e4:df:18:11:47:c7:6b:64:2f:93:6f:1e:af:19:
                    65:a9:ce:64:a2:91:75:69:0f:fa:cf:d6:fc:a8:87:
                    d3:bc:3e:df:bf:de:31:0d:5c:98:eb:73:51:d9:d0:
                    61:de:6e:8b:d1:77:c4:fb:b7:9b:0e:4a:f1:cd:84:
                    48:06:70:46:18:be:9c:be:01:98:09:c7:d7:0a:fd:
                    3b:da:63:4d:fa:f5:78:b4:13:14:e0:f5:c9:32:3c:
                    af:39:e7:28:20:c9:59:51:d6:6f:4f:f2:60:9a:b2:
                    42:b4:c0:a2:ea:16:d3:32:88:da:59:5e:3e:28:71:
                    09:ef:52:65:8a:b3:ca:48:1b:d3:be:1c:c6:4c:10:
                    29:2c:a8:75:f1:1d:82:19:c1:04:ed:ac:44:b9:9b:
                    5d:5f:2f:7c:f5:98:16:5e:b9:8b:f5:77:6a:50:a1:
                    89:94:32:e2:00:e8:d4:d2:e8:11:10:f0:d7:ae:45:
                    63:18:19:a3:87:f8:1b:27:84:2c:ca:b4:96:b2:57:
                    4f:c0:8b:20:e6:f8:ee:24:b1:12:eb:a2:9d:b1:97:
                    72:ff:dd:1c:b4:78:b1:ee:ff:43:eb:29:0f:f1:a4:
                    45:50:0e:d2:66:7d:f2:49:f9:b8:69:9f:49:db:81:
                    59:db
                Exponent: 65537 (0x10001)
        X509v3 extensions:
            X509v3 Basic Constraints: 
                CA:FALSE
            Netscape Comment: 
                OpenSSL Generated Certificate
            X509v3 Subject Key Identifier: 
                D2:B7:CD:32:B8:80:BD:3A:7F:80:F3:78:AF:41:CF:04:A0:EA:36:AE
            X509v3 Authority Key Identifier: 
                keyid:38:D2:3A:6B:51:5A:29:B8:D9:3D:9C:53:45:26:D3:66:29:6F:EA:D6

    Signature Algorithm: sha1WithRSAEncryption
         16:77:4b:1d:54:e1:91:dc:88:aa:68:3c:97:81:82:ee:a1:ac:
         bf:b2:48:f7:d6:1d:74:5d:2d:4f:d3:18:dd:09:76:7c:17:62:
         c8:26:8d:b7:be:8c:b3:03:96:8e:3f:7e:0b:f1:98:a3:54:37:
         7b:14:41:3a:f8:f1:4d:94:a0:3c:2f:53:5f:e6:3e:41:c1:9d:
         51:b7:d7:db:ed:ca:d6:f1:44:f6:8d:2c:ed:76:22:70:cf:74:
         a3:75:b4:4d:85:fa:f9:d9:7e:88:dd:27:04:fb:33:c1:7b:1a:
         f5:7b:4e:3d:0e:d9:ee:68:34:12:cb:92:c8:11:0d:96:7b:74:
         09:29:4b:bc:9c:3c:98:6f:39:c1:22:16:56:26:58:ad:99:ac:
         a3:c2:7c:ee:62:e1:d5:9a:1e:e4:50:b5:f6:cc:2a:3b:23:cd:
         cc:5c:e7:1b:73:8c:fa:41:88:df:65:90:39:1d:86:39:d6:a6:
         6c:67:2e:53:cb:6c:65:4b:d2:ad:5e:19:9a:ec:dc:24:18:58:
         2d:16:3d:53:9e:3c:65:f6:a4:01:ff:e5:28:3c:cf:a6:45:f8:
         15:f0:00:41:5f:97:3f:5f:29:0e:2e:4c:0d:69:c7:a2:68:2e:
         36:1b:86:5d:7c:9a:a8:00:d6:62:7a:43:90:44:6b:63:b2:73:
         7d:77:99:64
-----BEGIN CERTIFICATE-----
MIIDhTCCAm2gAwIBAgICEAQwDQYJKoZIhvcNAQEFBQAwSDELMAkGA1UEBhMCVVMx
CzAJBgNVBAgMAkNBMRIwEAYDVQQHDAlTdW5ueXZhbGUxGDAWBgNVBAoMD1NlbnNp
dHkgU3lzdGVtczAgFw0xMzA4MjgyMDQzNTlaGA8yMDk1MTAxNzIwNDM1OVowRDEL
MAkGA1UEBhMCVVMxCzAJBgNVBAgMAkNBMRgwFgYDVQQKDA9TZW5zaXR5IFN5c3Rl
bXMxDjAMBgNVBAMMBWFkYXJhMIIBIjANBgkqhkiG9w0BAQEFAAOCAQ8AMIIBCgKC
AQEA5Lt1NfYL/Q8u0cB/3Ur65N8YEUfHa2Qvk28erxllqc5kopF1aQ/6z9b8qIfT
vD7fv94xDVyY63NR2dBh3m6L0XfE+7ebDkrxzYRIBnBGGL6cvgGYCcfXCv072mNN
+vV4tBMU4PXJMjyvOecoIMlZUdZvT/JgmrJCtMCi6hbTMojaWV4+KHEJ71JlirPK
SBvTvhzGTBApLKh18R2CGcEE7axEuZtdXy989ZgWXrmL9XdqUKGJlDLiAOjU0ugR
EPDXrkVjGBmjh/gbJ4QsyrSWsldPwIsg5vjuJLES66KdsZdy/90ctHix7v9D6ykP
8aRFUA7SZn3ySfm4aZ9J24FZ2wIDAQABo3sweTAJBgNVHRMEAjAAMCwGCWCGSAGG
+EIBDQQfFh1PcGVuU1NMIEdlbmVyYXRlZCBDZXJ0aWZpY2F0ZTAdBgNVHQ4EFgQU
0rfNMriAvTp/gPN4r0HPBKDqNq4wHwYDVR0jBBgwFoAUONI6a1FaKbjZPZxTRSbT
Zilv6tYwDQYJKoZIhvcNAQEFBQADggEBABZ3Sx1U4ZHciKpoPJeBgu6hrL+ySPfW
HXRdLU/TGN0JdnwXYsgmjbe+jLMDlo4/fgvxmKNUN3sUQTr48U2UoDwvU1/mPkHB
nVG319vtytbxRPaNLO12InDPdKN1tE2F+vnZfojdJwT7M8F7GvV7Tj0O2e5oNBLL
ksgRDZZ7dAkpS7ycPJhvOcEiFlYmWK2ZrKPCfO5i4dWaHuRQtfbMKjsjzcxc5xtz
jPpBiN9lkDkdhjnWpmxnLlPLbGVL0q1eGZrs3CQYWC0WPVOePGX2pAH/5Sg8z6ZF
+BXwAEFflz9fKQ4uTA1px6JoLjYbhl18mqgA1mJ6Q5BEa2Oyc313mWQ=
-----END CERTIFICATE-----
